target datalayout = "e-m:e-p270:32:32-p271:32:32-p272:64:64-i64:64-i128:128-f80:128-n8:16:32:64-S128"
target triple = "x86_64-unknown-linux-gnu"

%struct.rsa_meth_st = type { %struct.openssl_method_common_st, ptr, ptr, ptr, ptr, ptr, ptr, ptr, ptr, ptr, ptr, ptr, ptr, ptr, i32, ptr, ptr, ptr }
%struct.openssl_method_common_st = type { i32, i8 }
%struct.rsa_st = type { ptr, ptr, ptr, ptr, ptr, ptr, ptr, ptr, ptr, ptr, %struct.crypto_ex_data_st, i32, i32, %union.crypto_mutex_st, ptr, ptr, ptr, i32, ptr, ptr }
%struct.crypto_ex_data_st = type { ptr }
%union.crypto_mutex_st = type { double, [48 x i8] }

; Function Attrs: nounwind uwtable
define hidden i32 @RSA_sign_raw(ptr noundef %rsa, ptr noundef %out_len, ptr noundef %out, i64 noundef %max_out, ptr noundef %in, i64 noundef %in_len, i32 noundef %padding) #0 {
entry:
  %retval = alloca i32, align 4
  %rsa.addr = alloca ptr, align 8
  %out_len.addr = alloca ptr, align 8
  %out.addr = alloca ptr, align 8
  %max_out.addr = alloca i64, align 8
  %in.addr = alloca ptr, align 8
  %in_len.addr = alloca i64, align 8
  %padding.addr = alloca i32, align 4
  store ptr %rsa, ptr %rsa.addr, align 8
  store ptr %out_len, ptr %out_len.addr, align 8
  store ptr %out, ptr %out.addr, align 8
  store i64 %max_out, ptr %max_out.addr, align 8
  store ptr %in, ptr %in.addr, align 8
  store i64 %in_len, ptr %in_len.addr, align 8
  store i32 %padding, ptr %padding.addr, align 4
  %0 = load ptr, ptr %rsa.addr, align 8
  %meth = getelementptr inbounds %struct.rsa_st, ptr %0, i32 0, i32 0
  %1 = load ptr, ptr %meth, align 8
  %sign_raw = getelementptr inbounds %struct.rsa_meth_st, ptr %1, i32 0, i32 8
  %2 = load ptr, ptr %sign_raw, align 8
  %tobool = icmp ne ptr %2, null
  br i1 %tobool, label %if.then, label %if.end

if.then:                                          ; preds = %entry
  %3 = load ptr, ptr %rsa.addr, align 8
  %meth1 = getelementptr inbounds %struct.rsa_st, ptr %3, i32 0, i32 0
  %4 = load ptr, ptr %meth1, align 8
  %sign_raw2 = getelementptr inbounds %struct.rsa_meth_st, ptr %4, i32 0, i32 8
  %5 = load ptr, ptr %sign_raw2, align 8
  %6 = load ptr, ptr %rsa.addr, align 8
  %7 = load ptr, ptr %out_len.addr, align 8
  %8 = load ptr, ptr %out.addr, align 8
  %9 = load i64, ptr %max_out.addr, align 8
  %10 = load ptr, ptr %in.addr, align 8
  %11 = load i64, ptr %in_len.addr, align 8
  %12 = load i32, ptr %padding.addr, align 4
  %call = call i32 %5(ptr noundef %6, ptr noundef %7, ptr noundef %8, i64 noundef %9, ptr noundef %10, i64 noundef %11, i32 noundef %12)
  store i32 %call, ptr %retval, align 4
  br label %return

if.end:                                           ; preds = %entry
  %13 = load ptr, ptr %rsa.addr, align 8
  %14 = load ptr, ptr %out_len.addr, align 8
  %15 = load ptr, ptr %out.addr, align 8
  %16 = load i64, ptr %max_out.addr, align 8
  %17 = load ptr, ptr %in.addr, align 8
  %18 = load i64, ptr %in_len.addr, align 8
  %19 = load i32, ptr %padding.addr, align 4
  %call3 = call i32 @rsa_default_sign_raw(ptr noundef %13, ptr noundef %14, ptr noundef %15, i64 noundef %16, ptr noundef %17, i64 noundef %18, i32 noundef %19)
  store i32 %call3, ptr %retval, align 4
  br label %return

return:                                           ; preds = %if.end, %if.then
  %20 = load i32, ptr %retval, align 4
  ret i32 %20
}